target datalayout = "e-m:e-p270:32:32-p271:32:32-p272:64:64-i64:64-i128:128-f80:128-n8:16:32:64-S128"
target triple = "x86_64-pc-linux-gnu"

%struct.stbvox_rotate = type { i8 }
%struct.stbvox_mesh_maker = type { %struct.stbvox_input_description, i32, i32, i32, i32, i32, i32, i32, i32, i32, i32, i32, i32, i32, i32, [6 x [4 x i32]], [6 x [4 x i32]], i32, i32, i32, i32, [2 x [3 x ptr]], [2 x [3 x ptr]], [2 x [3 x ptr]], [2 x [3 x i32]], [2 x [3 x i32]], [2 x [3 x i32]], i32, [128 x [2 x float]] }
%struct.stbvox_input_description = type { i8, ptr, ptr, ptr, ptr, ptr, ptr, ptr, ptr, ptr, ptr, ptr, ptr, ptr, ptr, ptr, ptr, ptr, ptr, ptr, ptr, ptr, ptr, ptr, ptr, ptr, ptr, ptr, ptr, ptr, ptr, ptr, ptr, ptr, ptr, ptr, ptr, ptr, ptr, ptr, ptr, ptr, ptr }
%struct.stbvox_pos = type { i8, i8, i8 }

; Function Attrs: nounwind uwtable
define void @stbvox_make_mesh_for_block(ptr noundef %0, i24 %1, i32 noundef %2, ptr noundef %3) #0 {
  %5 = alloca %struct.stbvox_pos, align 1
  %6 = alloca ptr, align 8
  %7 = alloca i32, align 4
  %8 = alloca ptr, align 8
  %9 = alloca i32, align 4
  %10 = alloca i32, align 4
  %11 = alloca ptr, align 8
  %12 = alloca i32, align 4
  %13 = alloca %struct.stbvox_rotate, align 1
  %14 = alloca i8, align 1
  %15 = alloca i8, align 1
  %16 = alloca i32, align 4
  %17 = alloca i24, align 4
  %18 = alloca i24, align 4
  %19 = alloca i8, align 1
  %20 = alloca i24, align 4
  %21 = alloca i24, align 4
  %22 = alloca i24, align 4
  %23 = alloca i24, align 4
  store i24 %1, ptr %5, align 1
  store ptr %0, ptr %6, align 8, !tbaa !20
  store i32 %2, ptr %7, align 4, !tbaa !3
  store ptr %3, ptr %8, align 8, !tbaa !58
  call void @llvm.lifetime.start.p0(i64 4, ptr %9) #4
  %24 = load ptr, ptr %6, align 8, !tbaa !20
  %25 = getelementptr inbounds nuw %struct.stbvox_mesh_maker, ptr %24, i32 0, i32 11
  %26 = load i32, ptr %25, align 8, !tbaa !74
  store i32 %26, ptr %9, align 4, !tbaa !3
  call void @llvm.lifetime.start.p0(i64 4, ptr %10) #4
  %27 = load ptr, ptr %6, align 8, !tbaa !20
  %28 = getelementptr inbounds nuw %struct.stbvox_mesh_maker, ptr %27, i32 0, i32 10
  %29 = load i32, ptr %28, align 4, !tbaa !75
  store i32 %29, ptr %10, align 4, !tbaa !3
  call void @llvm.lifetime.start.p0(i64 8, ptr %11) #4
  %30 = load ptr, ptr %6, align 8, !tbaa !20
  %31 = getelementptr inbounds nuw %struct.stbvox_mesh_maker, ptr %30, i32 0, i32 0
  %32 = getelementptr inbounds nuw %struct.stbvox_input_description, ptr %31, i32 0, i32 3
  %33 = load ptr, ptr %32, align 8, !tbaa !22
  %34 = load i32, ptr %7, align 4, !tbaa !3
  %35 = sext i32 %34 to i64
  %36 = getelementptr inbounds i8, ptr %33, i64 %35
  store ptr %36, ptr %11, align 8, !tbaa !12
  call void @llvm.lifetime.start.p0(i64 4, ptr %12) #4
  %37 = getelementptr inbounds nuw %struct.stbvox_pos, ptr %5, i32 0, i32 0
  %38 = load i8, ptr %37, align 1, !tbaa !76
  %39 = zext i8 %38 to i32
  %40 = getelementptr inbounds nuw %struct.stbvox_pos, ptr %5, i32 0, i32 1
  %41 = load i8, ptr %40, align 1, !tbaa !78
  %42 = zext i8 %41 to i32
  %43 = shl i32 %42, 7
  %44 = add nsw i32 %39, %43
  %45 = getelementptr inbounds nuw %struct.stbvox_pos, ptr %5, i32 0, i32 2
  %46 = load i8, ptr %45, align 1, !tbaa !79
  %47 = zext i8 %46 to i32
  %48 = shl i32 %47, 1
  %49 = shl i32 %48, 14
  %50 = add nsw i32 %44, %49
  %51 = add nsw i32 %50, 0
  %52 = add nsw i32 %51, 0
  store i32 %52, ptr %12, align 4, !tbaa !3
  call void @llvm.lifetime.start.p0(i64 1, ptr %13) #4
  call void @llvm.memset.p0.i64(ptr align 1 %13, i8 0, i64 1, i1 false)
  call void @llvm.lifetime.start.p0(i64 1, ptr %14) #4
  store i8 0, ptr %14, align 1, !tbaa !7
  call void @llvm.lifetime.start.p0(i64 1, ptr %15) #4
  %53 = load ptr, ptr %6, align 8, !tbaa !20
  %54 = getelementptr inbounds nuw %struct.stbvox_mesh_maker, ptr %53, i32 0, i32 13
  %55 = load i32, ptr %54, align 8, !tbaa !80
  %56 = trunc i32 %55 to i8
  store i8 %56, ptr %15, align 1, !tbaa !7
  %57 = load ptr, ptr %6, align 8, !tbaa !20
  %58 = getelementptr inbounds nuw %struct.stbvox_mesh_maker, ptr %57, i32 0, i32 0
  %59 = getelementptr inbounds nuw %struct.stbvox_input_description, ptr %58, i32 0, i32 17
  %60 = load ptr, ptr %59, align 8, !tbaa !81
  %61 = icmp ne ptr %60, null
  br i1 %61, label %62, label %71

62:                                               ; preds = %4
  %63 = load ptr, ptr %6, align 8, !tbaa !20
  %64 = getelementptr inbounds nuw %struct.stbvox_mesh_maker, ptr %63, i32 0, i32 0
  %65 = getelementptr inbounds nuw %struct.stbvox_input_description, ptr %64, i32 0, i32 17
  %66 = load ptr, ptr %65, align 8, !tbaa !81
  %67 = load i32, ptr %7, align 4, !tbaa !3
  %68 = sext i32 %67 to i64
  %69 = getelementptr inbounds i8, ptr %66, i64 %68
  %70 = load i8, ptr %69, align 1, !tbaa !7
  store i8 %70, ptr %15, align 1, !tbaa !7
  br label %94

71:                                               ; preds = %4
  %72 = load ptr, ptr %6, align 8, !tbaa !20
  %73 = getelementptr inbounds nuw %struct.stbvox_mesh_maker, ptr %72, i32 0, i32 0
  %74 = getelementptr inbounds nuw %struct.stbvox_input_description, ptr %73, i32 0, i32 18
  %75 = load ptr, ptr %74, align 8, !tbaa !82
  %76 = icmp ne ptr %75, null
  br i1 %76, label %77, label %93

77:                                               ; preds = %71
  %78 = load ptr, ptr %6, align 8, !tbaa !20
  %79 = getelementptr inbounds nuw %struct.stbvox_mesh_maker, ptr %78, i32 0, i32 0
  %80 = getelementptr inbounds nuw %struct.stbvox_input_description, ptr %79, i32 0, i32 18
  %81 = load ptr, ptr %80, align 8, !tbaa !82
  %82 = load ptr, ptr %6, align 8, !tbaa !20
  %83 = getelementptr inbounds nuw %struct.stbvox_mesh_maker, ptr %82, i32 0, i32 0
  %84 = getelementptr inbounds nuw %struct.stbvox_input_description, ptr %83, i32 0, i32 3
  %85 = load ptr, ptr %84, align 8, !tbaa !22
  %86 = load i32, ptr %7, align 4, !tbaa !3
  %87 = sext i32 %86 to i64
  %88 = getelementptr inbounds i8, ptr %85, i64 %87
  %89 = load i8, ptr %88, align 1, !tbaa !7
  %90 = zext i8 %89 to i64
  %91 = getelementptr inbounds nuw i8, ptr %81, i64 %90
  %92 = load i8, ptr %91, align 1, !tbaa !7
  store i8 %92, ptr %15, align 1, !tbaa !7
  br label %93

93:                                               ; preds = %77, %71
  br label %94

94:                                               ; preds = %93, %62
  %95 = load ptr, ptr %6, align 8, !tbaa !20
  %96 = getelementptr inbounds nuw %struct.stbvox_mesh_maker, ptr %95, i32 0, i32 21
  %97 = load i8, ptr %15, align 1, !tbaa !7
  %98 = zext i8 %97 to i64
  %99 = getelementptr inbounds nuw [2 x [3 x ptr]], ptr %96, i64 0, i64 %98
  %100 = getelementptr inbounds [3 x ptr], ptr %99, i64 0, i64 0
  %101 = load ptr, ptr %100, align 8, !tbaa !12
  %102 = load ptr, ptr %6, align 8, !tbaa !20
  %103 = getelementptr inbounds nuw %struct.stbvox_mesh_maker, ptr %102, i32 0, i32 25
  %104 = load i8, ptr %15, align 1, !tbaa !7
  %105 = zext i8 %104 to i64
  %106 = getelementptr inbounds nuw [2 x [3 x i32]], ptr %103, i64 0, i64 %105
  %107 = getelementptr inbounds [3 x i32], ptr %106, i64 0, i64 0
  %108 = load i32, ptr %107, align 4, !tbaa !3
  %109 = mul nsw i32 %108, 6
  %110 = sext i32 %109 to i64
  %111 = getelementptr inbounds i8, ptr %101, i64 %110
  %112 = load ptr, ptr %6, align 8, !tbaa !20
  %113 = getelementptr inbounds nuw %struct.stbvox_mesh_maker, ptr %112, i32 0, i32 22
  %114 = load i8, ptr %15, align 1, !tbaa !7
  %115 = zext i8 %114 to i64
  %116 = getelementptr inbounds nuw [2 x [3 x ptr]], ptr %113, i64 0, i64 %115
  %117 = getelementptr inbounds [3 x ptr], ptr %116, i64 0, i64 0
  %118 = load ptr, ptr %117, align 8, !tbaa !12
  %119 = icmp ugt ptr %111, %118
  br i1 %119, label %120, label %123

120:                                              ; preds = %94
  %121 = load ptr, ptr %6, align 8, !tbaa !20
  %122 = getelementptr inbounds nuw %struct.stbvox_mesh_maker, ptr %121, i32 0, i32 20
  store i32 1, ptr %122, align 4, !tbaa !83
  store i32 1, ptr %16, align 4
  br label %327

123:                                              ; preds = %94
  %124 = load ptr, ptr %6, align 8, !tbaa !20
  %125 = getelementptr inbounds nuw %struct.stbvox_mesh_maker, ptr %124, i32 0, i32 0
  %126 = getelementptr inbounds nuw %struct.stbvox_input_description, ptr %125, i32 0, i32 42
  %127 = load ptr, ptr %126, align 8, !tbaa !84
  %128 = icmp ne ptr %127, null
  br i1 %128, label %129, label %141

129:                                              ; preds = %123
  %130 = load ptr, ptr %6, align 8, !tbaa !20
  %131 = getelementptr inbounds nuw %struct.stbvox_mesh_maker, ptr %130, i32 0, i32 0
  %132 = getelementptr inbounds nuw %struct.stbvox_input_description, ptr %131, i32 0, i32 42
  %133 = load ptr, ptr %132, align 8, !tbaa !84
  %134 = load i32, ptr %7, align 4, !tbaa !3
  %135 = sext i32 %134 to i64
  %136 = getelementptr inbounds i8, ptr %133, i64 %135
  %137 = load i8, ptr %136, align 1, !tbaa !7
  %138 = zext i8 %137 to i32
  %139 = and i32 %138, 3
  %140 = trunc i32 %139 to i8
  store i8 %140, ptr %14, align 1, !tbaa !7
  br label %141

141:                                              ; preds = %129, %123
  %142 = load ptr, ptr %11, align 8, !tbaa !12
  %143 = getelementptr inbounds i8, ptr %142, i64 1
  %144 = load i8, ptr %143, align 1, !tbaa !7
  %145 = zext i8 %144 to i32
  %146 = icmp eq i32 %145, 0
  br i1 %146, label %147, label %163

147:                                              ; preds = %141
  %148 = load i8, ptr %14, align 1, !tbaa !7
  %149 = load i8, ptr %13, align 1
  %150 = and i8 %148, 3
  %151 = shl i8 %150, 4
  %152 = and i8 %149, -49
  %153 = or i8 %152, %151
  store i8 %153, ptr %13, align 1
  %154 = load ptr, ptr %6, align 8, !tbaa !20
  %155 = load i32, ptr %7, align 4, !tbaa !3
  %156 = load i32, ptr %12, align 4, !tbaa !3
  %157 = load ptr, ptr %8, align 8, !tbaa !58
  %158 = getelementptr inbounds i32, ptr %157, i64 16
  %159 = load i8, ptr %15, align 1, !tbaa !7
  %160 = getelementptr inbounds nuw %struct.stbvox_rotate, ptr %13, i32 0, i32 0
  %161 = load i8, ptr %160, align 1
  call void @llvm.memcpy.p0.p0.i64(ptr align 4 %17, ptr align 1 %5, i64 3, i1 false)
  %162 = load i24, ptr %17, align 4
  call void @stbvox_make_mesh_for_face(ptr noundef %154, i8 %161, i32 noundef 4, i32 noundef %155, i24 %162, i32 noundef %156, ptr noundef %158, i8 noundef zeroext %159, i32 noundef 4)
  br label %163

163:                                              ; preds = %147, %141
  %164 = load ptr, ptr %11, align 8, !tbaa !12
  %165 = getelementptr inbounds i8, ptr %164, i64 -1
  %166 = load i8, ptr %165, align 1, !tbaa !7
  %167 = zext i8 %166 to i32
  %168 = icmp eq i32 %167, 0
  br i1 %168, label %169, label %189

169:                                              ; preds = %163
  %170 = load i8, ptr %14, align 1, !tbaa !7
  %171 = zext i8 %170 to i32
  %172 = sub nsw i32 0, %171
  %173 = and i32 %172, 3
  %174 = trunc i32 %173 to i8
  %175 = load i8, ptr %13, align 1
  %176 = and i8 %174, 3
  %177 = shl i8 %176, 4
  %178 = and i8 %175, -49
  %179 = or i8 %178, %177
  store i8 %179, ptr %13, align 1
  %180 = load ptr, ptr %6, align 8, !tbaa !20
  %181 = load i32, ptr %7, align 4, !tbaa !3
  %182 = load i32, ptr %12, align 4, !tbaa !3
  %183 = load ptr, ptr %8, align 8, !tbaa !58
  %184 = getelementptr inbounds i32, ptr %183, i64 20
  %185 = load i8, ptr %15, align 1, !tbaa !7
  %186 = getelementptr inbounds nuw %struct.stbvox_rotate, ptr %13, i32 0, i32 0
  %187 = load i8, ptr %186, align 1
  call void @llvm.memcpy.p0.p0.i64(ptr align 4 %18, ptr align 1 %5, i64 3, i1 false)
  %188 = load i24, ptr %18, align 4
  call void @stbvox_make_mesh_for_face(ptr noundef %180, i8 %187, i32 noundef 5, i32 noundef %181, i24 %188, i32 noundef %182, ptr noundef %184, i8 noundef zeroext %185, i32 noundef 5)
  br label %189

189:                                              ; preds = %169, %163
  %190 = load ptr, ptr %6, align 8, !tbaa !20
  %191 = getelementptr inbounds nuw %struct.stbvox_mesh_maker, ptr %190, i32 0, i32 0
  %192 = getelementptr inbounds nuw %struct.stbvox_input_description, ptr %191, i32 0, i32 26
  %193 = load ptr, ptr %192, align 8, !tbaa !85
  %194 = icmp ne ptr %193, null
  br i1 %194, label %195, label %233

195:                                              ; preds = %189
  call void @llvm.lifetime.start.p0(i64 1, ptr %19) #4
  %196 = load ptr, ptr %6, align 8, !tbaa !20
  %197 = getelementptr inbounds nuw %struct.stbvox_mesh_maker, ptr %196, i32 0, i32 0
  %198 = getelementptr inbounds nuw %struct.stbvox_input_description, ptr %197, i32 0, i32 26
  %199 = load ptr, ptr %198, align 8, !tbaa !85
  %200 = load i32, ptr %7, align 4, !tbaa !3
  %201 = sext i32 %200 to i64
  %202 = getelementptr inbounds i8, ptr %199, i64 %201
  %203 = load i8, ptr %202, align 1, !tbaa !7
  store i8 %203, ptr %19, align 1, !tbaa !7
  %204 = load i8, ptr %19, align 1, !tbaa !7
  %205 = zext i8 %204 to i32
  %206 = ashr i32 %205, 0
  %207 = and i32 %206, 3
  %208 = trunc i32 %207 to i8
  %209 = load i8, ptr %13, align 1
  %210 = and i8 %208, 3
  %211 = and i8 %209, -4
  %212 = or i8 %211, %210
  store i8 %212, ptr %13, align 1
  %213 = load i8, ptr %19, align 1, !tbaa !7
  %214 = zext i8 %213 to i32
  %215 = ashr i32 %214, 2
  %216 = and i32 %215, 3
  %217 = trunc i32 %216 to i8
  %218 = load i8, ptr %13, align 1
  %219 = and i8 %217, 3
  %220 = shl i8 %219, 2
  %221 = and i8 %218, -13
  %222 = or i8 %221, %220
  store i8 %222, ptr %13, align 1
  %223 = load i8, ptr %19, align 1, !tbaa !7
  %224 = zext i8 %223 to i32
  %225 = ashr i32 %224, 6
  %226 = and i32 %225, 3
  %227 = trunc i32 %226 to i8
  %228 = load i8, ptr %13, align 1
  %229 = and i8 %227, 3
  %230 = shl i8 %229, 6
  %231 = and i8 %228, 63
  %232 = or i8 %231, %230
  store i8 %232, ptr %13, align 1
  call void @llvm.lifetime.end.p0(i64 1, ptr %19) #4
  br label %249

233:                                              ; preds = %189
  %234 = load i8, ptr %14, align 1, !tbaa !7
  %235 = load i8, ptr %13, align 1
  %236 = and i8 %234, 3
  %237 = shl i8 %236, 6
  %238 = and i8 %235, 63
  %239 = or i8 %238, %237
  store i8 %239, ptr %13, align 1
  %240 = load i8, ptr %13, align 1
  %241 = and i8 %236, 3
  %242 = shl i8 %241, 2
  %243 = and i8 %240, -13
  %244 = or i8 %243, %242
  store i8 %244, ptr %13, align 1
  %245 = load i8, ptr %13, align 1
  %246 = and i8 %241, 3
  %247 = and i8 %245, -4
  %248 = or i8 %247, %246
  store i8 %248, ptr %13, align 1
  br label %249

249:                                              ; preds = %233, %195
  %250 = load i8, ptr %13, align 1
  %251 = and i8 %250, -49
  %252 = or i8 %251, 0
  store i8 %252, ptr %13, align 1
  %253 = load ptr, ptr %11, align 8, !tbaa !12
  %254 = load i32, ptr %9, align 4, !tbaa !3
  %255 = sext i32 %254 to i64
  %256 = getelementptr inbounds i8, ptr %253, i64 %255
  %257 = load i8, ptr %256, align 1, !tbaa !7
  %258 = zext i8 %257 to i32
  %259 = icmp eq i32 %258, 0
  br i1 %259, label %260, label %270

260:                                              ; preds = %249
  %261 = load ptr, ptr %6, align 8, !tbaa !20
  %262 = load i32, ptr %7, align 4, !tbaa !3
  %263 = load i32, ptr %12, align 4, !tbaa !3
  %264 = load ptr, ptr %8, align 8, !tbaa !58
  %265 = getelementptr inbounds i32, ptr %264, i64 4
  %266 = load i8, ptr %15, align 1, !tbaa !7
  %267 = getelementptr inbounds nuw %struct.stbvox_rotate, ptr %13, i32 0, i32 0
  %268 = load i8, ptr %267, align 1
  call void @llvm.memcpy.p0.p0.i64(ptr align 4 %20, ptr align 1 %5, i64 3, i1 false)
  %269 = load i24, ptr %20, align 4
  call void @stbvox_make_mesh_for_face(ptr noundef %261, i8 %268, i32 noundef 1, i32 noundef %262, i24 %269, i32 noundef %263, ptr noundef %265, i8 noundef zeroext %266, i32 noundef 1)
  br label %270

270:                                              ; preds = %260, %249
  %271 = load ptr, ptr %11, align 8, !tbaa !12
  %272 = load i32, ptr %9, align 4, !tbaa !3
  %273 = sub nsw i32 0, %272
  %274 = sext i32 %273 to i64
  %275 = getelementptr inbounds i8, ptr %271, i64 %274
  %276 = load i8, ptr %275, align 1, !tbaa !7
  %277 = zext i8 %276 to i32
  %278 = icmp eq i32 %277, 0
  br i1 %278, label %279, label %289

279:                                              ; preds = %270
  %280 = load ptr, ptr %6, align 8, !tbaa !20
  %281 = load i32, ptr %7, align 4, !tbaa !3
  %282 = load i32, ptr %12, align 4, !tbaa !3
  %283 = load ptr, ptr %8, align 8, !tbaa !58
  %284 = getelementptr inbounds i32, ptr %283, i64 12
  %285 = load i8, ptr %15, align 1, !tbaa !7
  %286 = getelementptr inbounds nuw %struct.stbvox_rotate, ptr %13, i32 0, i32 0
  %287 = load i8, ptr %286, align 1
  call void @llvm.memcpy.p0.p0.i64(ptr align 4 %21, ptr align 1 %5, i64 3, i1 false)
  %288 = load i24, ptr %21, align 4
  call void @stbvox_make_mesh_for_face(ptr noundef %280, i8 %287, i32 noundef 3, i32 noundef %281, i24 %288, i32 noundef %282, ptr noundef %284, i8 noundef zeroext %285, i32 noundef 3)
  br label %289

289:                                              ; preds = %279, %270
  %290 = load ptr, ptr %11, align 8, !tbaa !12
  %291 = load i32, ptr %10, align 4, !tbaa !3
  %292 = sext i32 %291 to i64
  %293 = getelementptr inbounds i8, ptr %290, i64 %292
  %294 = load i8, ptr %293, align 1, !tbaa !7
  %295 = zext i8 %294 to i32
  %296 = icmp eq i32 %295, 0
  br i1 %296, label %297, label %307

297:                                              ; preds = %289
  %298 = load ptr, ptr %6, align 8, !tbaa !20
  %299 = load i32, ptr %7, align 4, !tbaa !3
  %300 = load i32, ptr %12, align 4, !tbaa !3
  %301 = load ptr, ptr %8, align 8, !tbaa !58
  %302 = getelementptr inbounds i32, ptr %301, i64 0
  %303 = load i8, ptr %15, align 1, !tbaa !7
  %304 = getelementptr inbounds nuw %struct.stbvox_rotate, ptr %13, i32 0, i32 0
  %305 = load i8, ptr %304, align 1
  call void @llvm.memcpy.p0.p0.i64(ptr align 4 %22, ptr align 1 %5, i64 3, i1 false)
  %306 = load i24, ptr %22, align 4
  call void @stbvox_make_mesh_for_face(ptr noundef %298, i8 %305, i32 noundef 0, i32 noundef %299, i24 %306, i32 noundef %300, ptr noundef %302, i8 noundef zeroext %303, i32 noundef 0)
  br label %307

307:                                              ; preds = %297, %289
  %308 = load ptr, ptr %11, align 8, !tbaa !12
  %309 = load i32, ptr %10, align 4, !tbaa !3
  %310 = sub nsw i32 0, %309
  %311 = sext i32 %310 to i64
  %312 = getelementptr inbounds i8, ptr %308, i64 %311
  %313 = load i8, ptr %312, align 1, !tbaa !7
  %314 = zext i8 %313 to i32
  %315 = icmp eq i32 %314, 0
  br i1 %315, label %316, label %326

316:                                              ; preds = %307
  %317 = load ptr, ptr %6, align 8, !tbaa !20
  %318 = load i32, ptr %7, align 4, !tbaa !3
  %319 = load i32, ptr %12, align 4, !tbaa !3
  %320 = load ptr, ptr %8, align 8, !tbaa !58
  %321 = getelementptr inbounds i32, ptr %320, i64 8
  %322 = load i8, ptr %15, align 1, !tbaa !7
  %323 = getelementptr inbounds nuw %struct.stbvox_rotate, ptr %13, i32 0, i32 0
  %324 = load i8, ptr %323, align 1
  call void @llvm.memcpy.p0.p0.i64(ptr align 4 %23, ptr align 1 %5, i64 3, i1 false)
  %325 = load i24, ptr %23, align 4
  call void @stbvox_make_mesh_for_face(ptr noundef %317, i8 %324, i32 noundef 2, i32 noundef %318, i24 %325, i32 noundef %319, ptr noundef %321, i8 noundef zeroext %322, i32 noundef 2)
  br label %326

326:                                              ; preds = %316, %307
  store i32 0, ptr %16, align 4
  br label %327

327:                                              ; preds = %326, %120
  call void @llvm.lifetime.end.p0(i64 1, ptr %15) #4
  call void @llvm.lifetime.end.p0(i64 1, ptr %14) #4
  call void @llvm.lifetime.end.p0(i64 1, ptr %13) #4
  call void @llvm.lifetime.end.p0(i64 4, ptr %12) #4
  call void @llvm.lifetime.end.p0(i64 8, ptr %11) #4
  call void @llvm.lifetime.end.p0(i64 4, ptr %10) #4
  call void @llvm.lifetime.end.p0(i64 4, ptr %9) #4
  %328 = load i32, ptr %16, align 4
  switch i32 %328, label %330 [
    i32 0, label %329
    i32 1, label %329
  ]

329:                                              ; preds = %327, %327
  ret void

330:                                              ; preds = %327
  unreachable
}