; Function Attrs: nofree norecurse nosync nounwind memory(readwrite, inaccessiblemem: none) uwtable
define void @stbvox_make_mesh_for_block(ptr noundef captures(none) %0, i24 %1, i32 noundef %2, ptr noundef readonly captures(none) %3) local_unnamed_addr #8 {
  %5 = getelementptr inbounds nuw i8, ptr %0, i64 384
  %6 = load i32, ptr %5, align 8, !tbaa !62
  %7 = getelementptr inbounds nuw i8, ptr %0, i64 380
  %8 = load i32, ptr %7, align 4, !tbaa !63
  %9 = getelementptr inbounds nuw i8, ptr %0, i64 24
  %10 = load ptr, ptr %9, align 8, !tbaa !18
  %11 = sext i32 %2 to i64
  %12 = getelementptr inbounds i8, ptr %10, i64 %11
  %.sroa.095.0.extract.trunc.mask = and i24 %1, 255
  %13 = lshr i24 %1, 1
  %14 = and i24 %13, 32640
  %narrow = add nuw nsw i24 %14, %.sroa.095.0.extract.trunc.mask
  %15 = and i24 %13, 8355840
  %narrow156 = add nuw i24 %narrow, %15
  %16 = zext i24 %narrow156 to i32
  %17 = getelementptr inbounds nuw i8, ptr %0, i64 136
  %18 = load ptr, ptr %17, align 8, !tbaa !64
  %.not = icmp eq ptr %18, null
  br i1 %.not, label %22, label %19

19:                                               ; preds = %4
  %20 = getelementptr inbounds i8, ptr %18, i64 %11
  %21 = load i8, ptr %20, align 1, !tbaa !3
  br label %33

22:                                               ; preds = %4
  %23 = getelementptr inbounds nuw i8, ptr %0, i64 392
  %24 = load i32, ptr %23, align 8, !tbaa !65
  %25 = trunc i32 %24 to i8
  %26 = getelementptr inbounds nuw i8, ptr %0, i64 144
  %27 = load ptr, ptr %26, align 8, !tbaa !66
  %.not157 = icmp eq ptr %27, null
  br i1 %.not157, label %33, label %28

28:                                               ; preds = %22
  %29 = load i8, ptr %12, align 1, !tbaa !3
  %30 = zext i8 %29 to i64
  %31 = getelementptr inbounds nuw i8, ptr %27, i64 %30
  %32 = load i8, ptr %31, align 1, !tbaa !3
  br label %33

33:                                               ; preds = %22, %28, %19
  %.0151 = phi i8 [ %21, %19 ], [ %32, %28 ], [ %25, %22 ]
  %34 = getelementptr inbounds nuw i8, ptr %0, i64 608
  %35 = zext i8 %.0151 to i64
  %36 = getelementptr inbounds nuw [2 x [3 x ptr]], ptr %34, i64 0, i64 %35
  %37 = load ptr, ptr %36, align 8, !tbaa !10
  %38 = getelementptr inbounds nuw i8, ptr %0, i64 776
  %39 = getelementptr inbounds nuw [2 x [3 x i32]], ptr %38, i64 0, i64 %35
  %40 = load i32, ptr %39, align 4, !tbaa !14
  %41 = mul nsw i32 %40, 6
  %42 = sext i32 %41 to i64
  %43 = getelementptr inbounds i8, ptr %37, i64 %42
  %44 = getelementptr inbounds nuw i8, ptr %0, i64 656
  %45 = getelementptr inbounds nuw [2 x [3 x ptr]], ptr %44, i64 0, i64 %35
  %46 = load ptr, ptr %45, align 8, !tbaa !10
  %47 = icmp ugt ptr %43, %46
  br i1 %47, label %48, label %50

48:                                               ; preds = %33
  %49 = getelementptr inbounds nuw i8, ptr %0, i64 604
  store i32 1, ptr %49, align 4, !tbaa !67
  br label %109

50:                                               ; preds = %33
  %51 = getelementptr inbounds nuw i8, ptr %0, i64 336
  %52 = load ptr, ptr %51, align 8, !tbaa !68
  %.not158 = icmp eq ptr %52, null
  br i1 %.not158, label %57, label %53

53:                                               ; preds = %50
  %54 = getelementptr inbounds i8, ptr %52, i64 %11
  %55 = load i8, ptr %54, align 1, !tbaa !3
  %56 = and i8 %55, 3
  br label %57

57:                                               ; preds = %53, %50
  %.0 = phi i8 [ %56, %53 ], [ 0, %50 ]
  %58 = getelementptr inbounds nuw i8, ptr %12, i64 1
  %59 = load i8, ptr %58, align 1, !tbaa !3
  %60 = icmp eq i8 %59, 0
  br i1 %60, label %61, label %64

61:                                               ; preds = %57
  %62 = shl nuw nsw i8 %.0, 4
  %63 = getelementptr inbounds nuw i8, ptr %3, i64 64
  tail call void @stbvox_make_mesh_for_face(ptr noundef nonnull %0, i8 %62, i32 noundef 4, i32 noundef %2, i24 poison, i32 noundef %16, ptr noundef nonnull %63, i8 noundef zeroext %.0151, i32 noundef 4)
  br label %64

64:                                               ; preds = %61, %57
  %65 = getelementptr inbounds i8, ptr %12, i64 -1
  %66 = load i8, ptr %65, align 1, !tbaa !3
  %67 = icmp eq i8 %66, 0
  br i1 %67, label %68, label %71

68:                                               ; preds = %64
  %.neg = mul nuw i8 %.0, 48
  %69 = and i8 %.neg, 48
  %70 = getelementptr inbounds nuw i8, ptr %3, i64 80
  tail call void @stbvox_make_mesh_for_face(ptr noundef nonnull %0, i8 %69, i32 noundef 5, i32 noundef %2, i24 poison, i32 noundef %16, ptr noundef nonnull %70, i8 noundef zeroext %.0151, i32 noundef 5)
  br label %71

71:                                               ; preds = %68, %64
  %72 = getelementptr inbounds nuw i8, ptr %0, i64 208
  %73 = load ptr, ptr %72, align 8, !tbaa !69
  %.not159 = icmp eq ptr %73, null
  br i1 %.not159, label %78, label %74

74:                                               ; preds = %71
  %75 = getelementptr inbounds i8, ptr %73, i64 %11
  %76 = load i8, ptr %75, align 1, !tbaa !3
  %77 = and i8 %76, -49
  br label %80

78:                                               ; preds = %71
  %79 = mul nuw i8 %.0, 69
  br label %80

80:                                               ; preds = %78, %74
  %.sroa.0.2 = phi i8 [ %77, %74 ], [ %79, %78 ]
  %81 = sext i32 %6 to i64
  %82 = getelementptr inbounds i8, ptr %12, i64 %81
  %83 = load i8, ptr %82, align 1, !tbaa !3
  %84 = icmp eq i8 %83, 0
  br i1 %84, label %85, label %87

85:                                               ; preds = %80
  %86 = getelementptr inbounds nuw i8, ptr %3, i64 16
  tail call void @stbvox_make_mesh_for_face(ptr noundef nonnull %0, i8 %.sroa.0.2, i32 noundef 1, i32 noundef %2, i24 poison, i32 noundef %16, ptr noundef nonnull %86, i8 noundef zeroext %.0151, i32 noundef 1)
  br label %87

87:                                               ; preds = %85, %80
  %88 = sub nsw i32 0, %6
  %89 = sext i32 %88 to i64
  %90 = getelementptr inbounds i8, ptr %12, i64 %89
  %91 = load i8, ptr %90, align 1, !tbaa !3
  %92 = icmp eq i8 %91, 0
  br i1 %92, label %93, label %95

93:                                               ; preds = %87
  %94 = getelementptr inbounds nuw i8, ptr %3, i64 48
  tail call void @stbvox_make_mesh_for_face(ptr noundef nonnull %0, i8 %.sroa.0.2, i32 noundef 3, i32 noundef %2, i24 poison, i32 noundef %16, ptr noundef nonnull %94, i8 noundef zeroext %.0151, i32 noundef 3)
  br label %95

95:                                               ; preds = %93, %87
  %96 = sext i32 %8 to i64
  %97 = getelementptr inbounds i8, ptr %12, i64 %96
  %98 = load i8, ptr %97, align 1, !tbaa !3
  %99 = icmp eq i8 %98, 0
  br i1 %99, label %100, label %101

100:                                              ; preds = %95
  tail call void @stbvox_make_mesh_for_face(ptr noundef nonnull %0, i8 %.sroa.0.2, i32 noundef 0, i32 noundef %2, i24 poison, i32 noundef %16, ptr noundef %3, i8 noundef zeroext %.0151, i32 noundef 0)
  br label %101

101:                                              ; preds = %100, %95
  %102 = sub nsw i32 0, %8
  %103 = sext i32 %102 to i64
  %104 = getelementptr inbounds i8, ptr %12, i64 %103
  %105 = load i8, ptr %104, align 1, !tbaa !3
  %106 = icmp eq i8 %105, 0
  br i1 %106, label %107, label %109

107:                                              ; preds = %101
  %108 = getelementptr inbounds nuw i8, ptr %3, i64 32
  tail call void @stbvox_make_mesh_for_face(ptr noundef nonnull %0, i8 %.sroa.0.2, i32 noundef 2, i32 noundef %2, i24 poison, i32 noundef %16, ptr noundef nonnull %108, i8 noundef zeroext %.0151, i32 noundef 2)
  br label %109

109:                                              ; preds = %101, %107, %48
  ret void
}